; Function Attrs: null_pointer_is_valid sspstrong uwtable
define zeroext i1 @proto_tracking_interesting_fields(ptr noundef readonly captures(address_is_null) %0) local_unnamed_addr #0 {
  %.not = icmp eq ptr %0, null
  br i1 %.not, label %9, label %2

2:                                                ; preds = %1
  %3 = getelementptr inbounds nuw i8, ptr %0, i64 48
  %4 = load ptr, ptr %3, align 8
  %5 = load ptr, ptr %4, align 8
  %.not7 = icmp eq ptr %5, null
  br i1 %.not7, label %9, label %6

6:                                                ; preds = %2
  %7 = tail call i32 @g_hash_table_size(ptr noundef nonnull %5)
  %8 = icmp ne i32 %7, 0
  br label %9

9:                                                ; preds = %2, %6, %1
  %.0 = phi i1 [ false, %1 ], [ false, %2 ], [ %8, %6 ]
  ret i1 %.0
}